; Function Attrs: nounwind uwtable
define ptr @l_Lean_getLocalHyps___rarg___lambda__1(ptr noundef %0, ptr noundef %1) #2 {
  %3 = getelementptr inbounds nuw i8, ptr %0, i64 8
  %4 = load ptr, ptr %3, align 8, !tbaa !9
  %5 = ptrtoint ptr %4 to i64
  %6 = and i64 %5, 1
  %.not = icmp eq i64 %6, 0
  br i1 %.not, label %7, label %lean_inc.exit10

7:                                                ; preds = %2
  %.val.i = load i32, ptr %4, align 4, !tbaa !4
  %8 = icmp sgt i32 %.val.i, 0
  br i1 %8, label %9, label %11, !prof !11

9:                                                ; preds = %7
  %10 = add nuw i32 %.val.i, 1
  store i32 %10, ptr %4, align 4, !tbaa !4
  br label %lean_inc.exit10

11:                                               ; preds = %7
  %.not.i13 = icmp eq i32 %.val.i, 0
  br i1 %.not.i13, label %lean_inc.exit10, label %12

12:                                               ; preds = %11
  tail call void @lean_inc_ref_cold(ptr noundef nonnull %4) #8
  br label %lean_inc.exit10

lean_inc.exit10:                                  ; preds = %12, %11, %9, %2
  %13 = ptrtoint ptr %0 to i64
  %14 = and i64 %13, 1
  %.not17 = icmp eq i64 %14, 0
  br i1 %.not17, label %15, label %lean_dec.exit9

15:                                               ; preds = %lean_inc.exit10
  %16 = load i32, ptr %0, align 4, !tbaa !4
  %17 = icmp sgt i32 %16, 1
  br i1 %17, label %18, label %20, !prof !11

18:                                               ; preds = %15
  %19 = add nsw i32 %16, -1
  store i32 %19, ptr %0, align 4, !tbaa !4
  br label %lean_dec.exit9

20:                                               ; preds = %15
  %.not.i = icmp eq i32 %16, 0
  br i1 %.not.i, label %lean_dec.exit9, label %21

21:                                               ; preds = %20
  tail call void @lean_dec_ref_cold(ptr noundef nonnull %0) #8
  br label %lean_dec.exit9

lean_dec.exit9:                                   ; preds = %21, %20, %18, %lean_inc.exit10
  %22 = getelementptr inbounds nuw i8, ptr %4, i64 16
  %23 = load ptr, ptr %22, align 8, !tbaa !9
  %24 = ptrtoint ptr %23 to i64
  %25 = and i64 %24, 1
  %.not18 = icmp eq i64 %25, 0
  br i1 %.not18, label %26, label %lean_inc.exit

26:                                               ; preds = %lean_dec.exit9
  %.val.i14 = load i32, ptr %23, align 4, !tbaa !4
  %27 = icmp sgt i32 %.val.i14, 0
  br i1 %27, label %28, label %30, !prof !11

28:                                               ; preds = %26
  %29 = add nuw i32 %.val.i14, 1
  store i32 %29, ptr %23, align 4, !tbaa !4
  br label %lean_inc.exit

30:                                               ; preds = %26
  %.not.i15 = icmp eq i32 %.val.i14, 0
  br i1 %.not.i15, label %lean_inc.exit, label %31

31:                                               ; preds = %30
  tail call void @lean_inc_ref_cold(ptr noundef nonnull %23) #8
  br label %lean_inc.exit

lean_inc.exit:                                    ; preds = %31, %30, %28, %lean_dec.exit9
  br i1 %.not, label %32, label %lean_dec.exit

32:                                               ; preds = %lean_inc.exit
  %33 = load i32, ptr %4, align 4, !tbaa !4
  %34 = icmp sgt i32 %33, 1
  br i1 %34, label %35, label %37, !prof !11

35:                                               ; preds = %32
  %36 = add nsw i32 %33, -1
  store i32 %36, ptr %4, align 4, !tbaa !4
  br label %lean_dec.exit

37:                                               ; preds = %32
  %.not.i11 = icmp eq i32 %33, 0
  br i1 %.not.i11, label %lean_dec.exit, label %38

38:                                               ; preds = %37
  tail call void @lean_dec_ref_cold(ptr noundef nonnull %4) #8
  br label %lean_dec.exit

lean_dec.exit:                                    ; preds = %38, %37, %35, %lean_inc.exit
  %39 = tail call ptr @lean_apply_2(ptr noundef %23, ptr noundef nonnull inttoptr (i64 1 to ptr), ptr noundef %1) #8
  ret ptr %39
}